; Function Attrs: mustprogress nofree norecurse nosync nounwind willreturn memory(none) uwtable
define dso_local noundef range(i32 132, 135) i32 @_ZNK4llvm13LegalizerInfo31getExtOpcodeForWideningConstantENS_3LLTE(ptr nonnull readnone align 8 captures(none) %0, i64 %1) unnamed_addr #4 align 2 {
  %3 = and i64 %1, -7
  %spec.select.i.i.i.i = icmp ne i64 %3, 0
  %4 = and i64 %1, 6
  %5 = icmp eq i64 %4, 2
  %or.cond.i.i = and i1 %spec.select.i.i.i.i, %5
  %6 = and i64 %1, 1
  %7 = icmp ne i64 %6, 0
  %or.cond14.i.i = or i1 %7, %or.cond.i.i
  br i1 %or.cond14.i.i, label %8, label %_ZNK4llvm3LLT19getScalarSizeInBitsEv.exit11.i.i

8:                                                ; preds = %2
  %.not.i1.i.i = icmp eq i64 %6, 0
  br i1 %.not.i1.i.i, label %11, label %9

9:                                                ; preds = %8
  %10 = lshr i64 %1, 3
  br label %_ZNK4llvm3LLT11isByteSizedEv.exit

11:                                               ; preds = %8
  %12 = and i64 %1, 4
  %.not1.i2.i.i = icmp eq i64 %12, 0
  br i1 %.not1.i2.i.i, label %15, label %13

13:                                               ; preds = %11
  %14 = lshr i64 %1, 19
  br label %_ZNK4llvm3LLT11isByteSizedEv.exit

15:                                               ; preds = %11
  %16 = lshr i64 %1, 3
  br label %_ZNK4llvm3LLT11isByteSizedEv.exit

_ZNK4llvm3LLT19getScalarSizeInBitsEv.exit11.i.i:  ; preds = %2
  %17 = lshr i64 %1, 3
  %18 = and i64 %1, 4
  %.not1.i8.i.i = icmp eq i64 %18, 0
  %19 = lshr i64 %1, 19
  %.0.in.i6.i.i = select i1 %.not1.i8.i.i, i64 %17, i64 %19
  %20 = mul i64 %.0.in.i6.i.i, %17
  br label %_ZNK4llvm3LLT11isByteSizedEv.exit

_ZNK4llvm3LLT11isByteSizedEv.exit:                ; preds = %9, %13, %15, %_ZNK4llvm3LLT19getScalarSizeInBitsEv.exit11.i.i
  %.sroa.012.0.in.i.i = phi i64 [ %20, %_ZNK4llvm3LLT19getScalarSizeInBitsEv.exit11.i.i ], [ %10, %9 ], [ %16, %15 ], [ %14, %13 ]
  %.zext.i = and i64 %.sroa.012.0.in.i.i, 7
  %21 = icmp eq i64 %.zext.i, 0
  %22 = select i1 %21, i32 132, i32 134
  ret i32 %22
}